; Function Attrs: nounwind uwtable
define hidden signext range(i8 0, 2) i8 @nfaExecMcClellan8_testEOD(ptr noundef readonly captures(none) %0, ptr noundef readonly captures(none) %1, ptr noundef readnone captures(none) %2, i64 noundef %3, ptr noundef readonly captures(none) %4, ptr noundef %5) local_unnamed_addr #0 {
  %7 = load i8, ptr %1, align 1
  %8 = getelementptr inbounds nuw i8, ptr %0, i64 64
  %9 = getelementptr inbounds nuw i8, ptr %0, i64 76
  %10 = load i32, ptr %9, align 4
  %11 = zext i32 %10 to i64
  %12 = getelementptr inbounds nuw i8, ptr %0, i64 %11
  %13 = zext i8 %7 to i64
  %14 = getelementptr inbounds nuw i8, ptr %0, i64 99
  %15 = load i8, ptr %14, align 1
  %16 = icmp eq i8 %15, 1
  br i1 %16, label %17, label %21

17:                                               ; preds = %6
  %18 = getelementptr inbounds nuw i8, ptr %0, i64 94
  %19 = load i16, ptr %18, align 2
  %20 = zext i8 %7 to i16
  %.not.i = icmp ugt i16 %19, %20
  br i1 %.not.i, label %21, label %mcclellanCheckEOD.exit

21:                                               ; preds = %17, %6
  %22 = getelementptr inbounds nuw %struct.mstate_aux, ptr %12, i64 %13, i32 1
  %23 = load i32, ptr %22, align 4
  %.not12.i = icmp eq i32 %23, 0
  br i1 %.not12.i, label %mcclellanCheckEOD.exit, label %24

24:                                               ; preds = %21
  %25 = zext i32 %23 to i64
  %26 = getelementptr inbounds nuw i8, ptr %8, i64 %25
  %27 = getelementptr inbounds i8, ptr %26, i64 -64
  %28 = load i32, ptr %27, align 4
  %29 = getelementptr inbounds i8, ptr %26, i64 -60
  %.not38.i.i4 = icmp eq i32 %28, 0
  br i1 %.not38.i.i4, label %mcclellanCheckEOD.exit, label %.lr.ph.preheader

.lr.ph.preheader:                                 ; preds = %24
  %wide.trip.count = zext i32 %28 to i64
  br label %.lr.ph

30:                                               ; preds = %.lr.ph
  %indvars.iv.next = add nuw nsw i64 %indvars.iv, 1
  %exitcond.not = icmp eq i64 %indvars.iv.next, %wide.trip.count
  br i1 %exitcond.not, label %mcclellanCheckEOD.exit, label %.lr.ph

.lr.ph:                                           ; preds = %.lr.ph.preheader, %30
  %indvars.iv = phi i64 [ 0, %.lr.ph.preheader ], [ %indvars.iv.next, %30 ]
  %31 = getelementptr inbounds nuw [0 x i32], ptr %29, i64 0, i64 %indvars.iv
  %32 = load i32, ptr %31, align 4
  %33 = tail call i32 %4(i64 noundef 0, i64 noundef %3, i32 noundef %32, ptr noundef %5) #15
  %34 = icmp eq i32 %33, 0
  br i1 %34, label %mcclellanCheckEOD.exit, label %30

mcclellanCheckEOD.exit:                           ; preds = %.lr.ph, %30, %24, %17, %21
  %.0.i = phi i8 [ 1, %17 ], [ 1, %21 ], [ 1, %24 ], [ 0, %.lr.ph ], [ 1, %30 ]
  ret i8 %.0.i
}